Certificate:
    Data:
        Version: 3 (0x2)
        Serial Number: 4100 (0x1004)
        Signature Algorithm: sha256WithRSAEncryption
        Issuer: CN=www.gomommy.com, O=GoMommy.com, Inc., C=US
        Validity
            Not Before: Nov  5 00:20:46 2024 GMT
            Not After : Nov  3 00:20:46 2034 GMT
        Subject: C=US, O=Bank of America Corporation, CN=www.bankofamerica.com
        Subject Public Key Info:
            Public Key Algorithm: rsaEncryption
                RSA Public-Key: (2048 bit)
                Modulus:
                    00:cf:b0:9c:6d:26:be:60:19:e1:d1:ff:1a:ed:8b:
                    3b:a4:db:37:1f:56:2b:ee:77:6b:52:a2:b0:b3:b7:
                    df:66:4e:c4:97:7b:72:d3:9c:6e:1e:43:6a:46:61:
                    c7:54:69:ae:e7:4d:2b:6d:f0:3d:d2:b6:5b:65:00:
                    eb:64:52:b8:16:5b:4c:e3:52:69:19:53:02:2b:c5:
                    0a:e6:8f:6b:99:91:45:7a:c1:ec:be:dc:b6:13:b8:
                    94:87:be:de:bc:a7:29:2e:e0:ea:62:66:ed:53:36:
                    bc:a8:7d:c0:e4:44:cb:81:1d:f3:75:1d:65:28:3d:
                    f1:db:b9:f5:66:37:02:45:07:52:78:ad:f9:87:81:
                    07:25:41:31:86:cb:a4:19:85:3f:8f:d2:16:a2:a5:
                    37:f7:90:8e:5a:94:ee:d0:5b:00:b1:0d:9c:d4:bb:
                    e7:e4:10:9b:ed:8b:66:9b:ed:94:66:27:d1:4e:8a:
                    69:34:29:69:1c:70:7f:f4:16:4e:a2:f4:bd:c7:3d:
                    85:54:dc:75:db:ec:b5:55:b4:f7:ad:ed:4b:aa:9e:
                    a0:5b:1c:50:a5:88:2d:a2:28:1a:44:f7:56:07:87:
                    70:6e:65:d1:39:14:3c:a9:d4:a8:55:08:7f:5a:7f:
                    34:e5:fb:0c:37:17:8c:dc:5b:13:04:5c:eb:83:a1:
                    9f:c7
                Exponent: 65537 (0x10001)
        X509v3 extensions:
            X509v3 Basic Constraints: 
                CA:FALSE
            Netscape Comment: 
                OpenSSL Generated Certificate
            X509v3 Subject Key Identifier: 
                61:CD:7C:49:E8:16:3A:45:C5:8E:C9:77:39:6A:26:91:5B:A5:58:8F
            X509v3 Authority Key Identifier: 
                keyid:6D:A6:9A:C5:AE:54:F4:C0:22:C6:90:9F:61:A6:30:89:8A:C2:20:98

    Signature Algorithm: sha256WithRSAEncryption
         5e:5d:3d:f4:0c:5a:28:71:93:a7:8a:2f:67:8f:47:bc:d8:b7:
         58:1b:a6:3c:83:d2:36:00:2b:1e:2f:21:6d:f3:0c:10:20:43:
         c3:7d:a9:4a:a2:44:dd:5d:ec:7e:b6:47:4b:33:d2:d9:15:cf:
         b6:d9:cb:a3:f0:bb:45:6f:26:7e:63:4b:c8:1d:cd:a9:83:b5:
         67:4c:bb:76:b2:22:e3:5a:a8:0f:a7:de:6b:ef:3c:10:f0:d6:
         e2:06:31:d1:b0:02:47:31:09:c1:f3:85:bd:fb:2b:5e:8b:fb:
         b4:a9:5b:da:66:c6:5a:3b:21:f0:54:1e:ce:62:70:8e:e8:f3:
         76:df:97:64:a1:fd:78:91:d6:2e:45:c7:19:36:8d:73:b6:50:
         17:23:26:d9:06:94:a7:84:6b:4c:93:b7:53:54:5f:5f:91:7a:
         4e:9c:01:17:65:d6:0b:42:55:de:0a:f7:1f:6e:16:b2:ea:fc:
         e0:9e:02:b9:f2:61:b9:fa:40:eb:53:83:be:37:90:dc:0d:4a:
         55:f0:97:25:ca:e2:88:e4:fb:03:42:ea:3d:e5:2b:ff:e1:f9:
         99:9f:3c:09:6f:eb:30:26:53:e3:1e:7b:82:45:9c:67:bc:4e:
         ca:60:b4:09:71:e2:f9:21:f3:db:b0:42:b1:29:f4:14:05:33:
         bd:d9:35:c0:9e:0c:6e:3f:d1:6a:b4:59:b8:28:a9:94:a7:3f:
         cd:ff:44:95:65:b1:ea:c2:f6:89:67:3f:f3:09:0c:7e:4c:15:
         8e:d0:14:d8:44:40:bd:07:24:fb:da:5e:a7:ad:e5:a2:a5:b6:
         d6:44:05:2c:bf:ca:17:ad:2f:9a:ef:94:37:92:7e:06:0d:6a:
         46:1f:c9:34:b3:cc:d5:75:ef:4a:a0:d6:74:4b:fb:d5:14:93:
         6c:97:93:4d:89:6e:4e:4c:f3:42:9a:38:5e:f7:21:9f:3a:a6:
         de:18:25:34:63:d0:9d:89:73:af:fe:82:48:0c:3f:80:35:2f:
         1d:81:b8:56:60:e6:b6:96:9e:fc:c3:81:0a:4e:5c:ff:99:f3:
         43:56:8e:14:d8:2d:54:61:56:42:a2:52:4d:38:1b:9d:85:31:
         5a:47:b3:15:c7:44:aa:12:f6:e8:36:cf:ad:68:8e:de:ca:46:
         f0:05:50:ca:05:31:c6:23:f7:9f:49:0b:a0:79:d2:70:1e:d0:
         78:0b:8b:b1:f4:1b:15:58:32:c1:f7:b2:95:c0:d3:4d:0c:db:
         2c:0a:7d:70:af:86:ea:59:9f:e7:c6:84:db:80:fd:d8:38:67:
         20:44:5b:a5:d5:76:2c:4f:fd:a0:3e:bc:9c:6a:f3:6f:7d:0e:
         03:a8:c1:b7:57:fd:27:3e
-----BEGIN CERTIFICATE-----
MIIEjTCCAnWgAwIBAgICEAQwDQYJKoZIhvcNAQELBQAwQzEYMBYGA1UEAwwPd3d3
LmdvbW9tbXkuY29tMRowGAYDVQQKDBFHb01vbW15LmNvbSwgSW5jLjELMAkGA1UE
BhMCVVMwHhcNMjQxMTA1MDAyMDQ2WhcNMzQxMTAzMDAyMDQ2WjBTMQswCQYDVQQG
EwJVUzEkMCIGA1UECgwbQmFuayBvZiBBbWVyaWNhIENvcnBvcmF0aW9uMR4wHAYD
VQQDDBV3d3cuYmFua29mYW1lcmljYS5jb20wggEiMA0GCSqGSIb3DQEBAQUAA4IB
DwAwggEKAoIBAQDPsJxtJr5gGeHR/xrtizuk2zcfVivud2tSorCzt99mTsSXe3LT
nG4eQ2pGYcdUaa7nTStt8D3StltlAOtkUrgWW0zjUmkZUwIrxQrmj2uZkUV6wey+
3LYTuJSHvt68pyku4OpiZu1TNryofcDkRMuBHfN1HWUoPfHbufVmNwJFB1J4rfmH
gQclQTGGy6QZhT+P0haipTf3kI5alO7QWwCxDZzUu+fkEJvti2ab7ZRmJ9FOimk0
KWkccH/0Fk6i9L3HPYVU3HXb7LVVtPet7UuqnqBbHFCliC2iKBpE91YHh3BuZdE5
FDyp1KhVCH9afzTl+ww3F4zcWxMEXOuDoZ/HAgMBAAGjezB5MAkGA1UdEwQCMAAw
LAYJYIZIAYb4QgENBB8WHU9wZW5TU0wgR2VuZXJhdGVkIENlcnRpZmljYXRlMB0G
A1UdDgQWBBRhzXxJ6BY6RcWOyXc5aiaRW6VYjzAfBgNVHSMEGDAWgBRtpprFrlT0
wCLGkJ9hpjCJisIgmDANBgkqhkiG9w0BAQsFAAOCAgEAXl099AxaKHGTp4ovZ49H
vNi3WBumPIPSNgArHi8hbfMMECBDw32pSqJE3V3sfrZHSzPS2RXPttnLo/C7RW8m
fmNLyB3NqYO1Z0y7drIi41qoD6fea+88EPDW4gYx0bACRzEJwfOFvfsrXov7tKlb
2mbGWjsh8FQezmJwjujzdt+XZKH9eJHWLkXHGTaNc7ZQFyMm2QaUp4RrTJO3U1Rf
X5F6TpwBF2XWC0JV3gr3H24Wsur84J4CufJhufpA61ODvjeQ3A1KVfCXJcriiOT7
A0LqPeUr/+H5mZ88CW/rMCZT4x57gkWcZ7xOymC0CXHi+SHz27BCsSn0FAUzvdk1
wJ4Mbj/RarRZuCiplKc/zf9ElWWx6sL2iWc/8wkMfkwVjtAU2ERAvQck+9pep63l
oqW21kQFLL/KF60vmu+UN5J+Bg1qRh/JNLPM1XXvSqDWdEv71RSTbJeTTYluTkzz
Qpo4Xvchnzqm3hglNGPQnYlzr/6CSAw/gDUvHYG4VmDmtpae/MOBCk5c/5nzQ1aO
FNgtVGFWQqJSTTgbnYUxWkezFcdEqhL26DbPrWiO3spG8AVQygUxxiP3n0kLoHnS
cB7QeAuLsfQbFVgywfeylcDTTQzbLAp9cK+G6lmf58aE24D92DhnIERbpdV2LE/9
oD68nGrzb30OA6jBt1f9Jz4=
-----END CERTIFICATE-----
