Certificate:
    Data:
        Version: 3 (0x2)
        Serial Number: 4098 (0x1002)
        Signature Algorithm: sha256WithRSAEncryption
        Issuer: C=US, ST=Idaho, L=Boise, O=GoMommy, OU=GoMommy, CN=GoMommy/emailAddress=test@gomommy.com
        Validity
            Not Before: Nov  4 21:24:18 2024 GMT
            Not After : Nov  2 21:24:18 2034 GMT
        Subject: C=US, O=Bank of America Corporation, CN=www.bankofamerica.com
        Subject Public Key Info:
            Public Key Algorithm: rsaEncryption
                RSA Public-Key: (2048 bit)
                Modulus:
                    00:ca:98:0f:34:3b:39:dd:d7:d0:a9:a6:b2:87:98:
                    ef:82:aa:38:08:41:8c:84:71:eb:9b:a7:32:e0:21:
                    d1:b9:21:d7:17:6f:41:c0:3f:2a:5d:42:38:40:68:
                    99:8c:ad:eb:a2:e1:63:15:70:ec:32:65:7c:27:33:
                    b2:6d:21:87:89:69:08:6a:61:fd:9b:ec:e9:d9:4a:
                    6f:c3:d5:da:87:91:6c:1d:a4:dc:a4:77:c1:3c:10:
                    cc:47:59:52:7c:c2:ce:30:dc:b1:57:c1:8e:bc:1a:
                    0d:49:e4:25:97:15:cd:69:2a:62:c0:65:3c:90:2b:
                    24:24:10:1c:ad:6b:0f:cb:61:cc:4f:1f:9b:56:8d:
                    e6:ca:b2:d1:81:2b:a3:65:cc:84:0d:b9:bb:a1:0b:
                    18:0a:df:b2:14:78:50:44:eb:e4:87:af:1d:80:23:
                    ab:5a:92:25:7b:3f:72:43:74:5b:c3:9e:b6:02:56:
                    b0:c8:54:95:6d:ca:3c:a4:c6:49:b8:8b:f7:b8:fa:
                    cc:69:58:27:0e:64:fc:05:58:79:c8:63:18:8a:49:
                    05:5e:ce:00:fe:94:4e:4b:f8:49:21:a2:e0:fe:06:
                    7e:41:b4:ed:10:18:7f:d6:4a:f3:a5:4a:65:0b:9d:
                    d7:e0:56:c9:30:27:4a:88:3a:e8:3d:dc:c5:aa:a6:
                    dc:c5
                Exponent: 65537 (0x10001)
        X509v3 extensions:
            X509v3 Basic Constraints: 
                CA:FALSE
            Netscape Comment: 
                OpenSSL Generated Certificate
            X509v3 Subject Key Identifier: 
                83:50:64:54:F3:69:7F:33:4F:C1:BD:A0:A5:C5:4A:54:4B:BB:D6:00
            X509v3 Authority Key Identifier: 
                keyid:E4:EC:24:61:B3:C6:00:8B:76:9A:52:4E:FF:EA:47:58:55:0D:19:F9

    Signature Algorithm: sha256WithRSAEncryption
         22:d0:cb:c6:cc:cf:90:89:af:65:91:4e:77:26:73:26:fc:3a:
         8d:4f:16:17:be:d2:a4:01:00:1f:2e:6e:ec:7d:bb:8f:f5:38:
         e1:69:f3:84:8a:44:8f:a6:77:c9:d3:e0:1e:b6:4d:2d:b1:e0:
         d0:bf:d9:98:ac:62:45:d9:e7:0e:2d:96:ca:4a:69:fe:aa:65:
         5a:f1:28:72:00:7c:cb:43:f0:0a:21:b3:1a:41:2d:20:a5:3f:
         b3:6e:e3:77:1d:8f:85:67:da:04:25:02:20:8c:06:38:e7:c9:
         f0:ae:cd:10:26:8d:e7:2f:0c:93:67:d5:c2:66:f7:1b:dd:0d:
         d2:0d:c5:34:75:35:f6:d9:d9:3e:f7:e3:e9:c0:24:6e:f9:9d:
         d4:a3:56:73:1d:d5:cf:13:9e:a7:2f:ae:dc:96:61:9b:16:e9:
         7d:64:94:55:dd:a1:b8:52:c8:af:a7:12:08:f3:06:a8:6e:6e:
         39:82:d0:0e:43:0a:35:a0:df:0d:a5:45:bd:8c:5c:4e:92:57:
         fd:1e:f7:05:03:99:5b:2e:1c:54:53:d5:6e:6c:75:75:fb:31:
         62:9f:bc:ed:e1:98:3c:47:3d:6f:ba:bd:5b:9b:06:c4:ef:86:
         1b:f4:e1:2e:98:ae:f0:0b:1c:bd:54:01:db:df:dc:84:11:8c:
         e0:bc:e2:ca
-----BEGIN CERTIFICATE-----
MIIDzzCCAregAwIBAgICEAIwDQYJKoZIhvcNAQELBQAwgYQxCzAJBgNVBAYTAlVT
MQ4wDAYDVQQIDAVJZGFobzEOMAwGA1UEBwwFQm9pc2UxEDAOBgNVBAoMB0dvTW9t
bXkxEDAOBgNVBAsMB0dvTW9tbXkxEDAOBgNVBAMMB0dvTW9tbXkxHzAdBgkqhkiG
9w0BCQEWEHRlc3RAZ29tb21teS5jb20wHhcNMjQxMTA0MjEyNDE4WhcNMzQxMTAy
MjEyNDE4WjBTMQswCQYDVQQGEwJVUzEkMCIGA1UECgwbQmFuayBvZiBBbWVyaWNh
IENvcnBvcmF0aW9uMR4wHAYDVQQDDBV3d3cuYmFua29mYW1lcmljYS5jb20wggEi
MA0GCSqGSIb3DQEBAQUAA4IBDwAwggEKAoIBAQDKmA80Oznd19CpprKHmO+CqjgI
QYyEceubpzLgIdG5IdcXb0HAPypdQjhAaJmMreui4WMVcOwyZXwnM7JtIYeJaQhq
Yf2b7OnZSm/D1dqHkWwdpNykd8E8EMxHWVJ8ws4w3LFXwY68Gg1J5CWXFc1pKmLA
ZTyQKyQkEBytaw/LYcxPH5tWjebKstGBK6NlzIQNubuhCxgK37IUeFBE6+SHrx2A
I6takiV7P3JDdFvDnrYCVrDIVJVtyjykxkm4i/e4+sxpWCcOZPwFWHnIYxiKSQVe
zgD+lE5L+EkhouD+Bn5BtO0QGH/WSvOlSmULndfgVskwJ0qIOug93MWqptzFAgMB
AAGjezB5MAkGA1UdEwQCMAAwLAYJYIZIAYb4QgENBB8WHU9wZW5TU0wgR2VuZXJh
dGVkIENlcnRpZmljYXRlMB0GA1UdDgQWBBSDUGRU82l/M0/BvaClxUpUS7vWADAf
BgNVHSMEGDAWgBTk7CRhs8YAi3aaUk7/6kdYVQ0Z+TANBgkqhkiG9w0BAQsFAAOC
AQEAItDLxszPkImvZZFOdyZzJvw6jU8WF77SpAEAHy5u7H27j/U44WnzhIpEj6Z3
ydPgHrZNLbHg0L/ZmKxiRdnnDi2Wykpp/qplWvEocgB8y0PwCiGzGkEtIKU/s27j
dx2PhWfaBCUCIIwGOOfJ8K7NECaN5y8Mk2fVwmb3G90N0g3FNHU19tnZPvfj6cAk
bvmd1KNWcx3VzxOepy+u3JZhmxbpfWSUVd2huFLIr6cSCPMGqG5uOYLQDkMKNaDf
DaVFvYxcTpJX/R73BQOZWy4cVFPVbmx1dfsxYp+87eGYPEc9b7q9W5sGxO+GG/Th
Lpiu8AscvVQB29/chBGM4Lziyg==
-----END CERTIFICATE-----
