Certificate:
    Data:
        Version: 3 (0x2)
        Serial Number: 4099 (0x1003)
        Signature Algorithm: sha256WithRSAEncryption
        Issuer: CN=www.gomommy.com, O=GoMommy.com, Inc., C=US
        Validity
            Not Before: Nov  5 00:20:26 2024 GMT
            Not After : Nov  3 00:20:26 2034 GMT
        Subject: C=US, O=FakeBank Inc., CN=www.fakebank.com
        Subject Public Key Info:
            Public Key Algorithm: rsaEncryption
                RSA Public-Key: (2048 bit)
                Modulus:
                    00:95:ff:72:f9:9e:47:11:1b:f7:0a:57:5b:f9:02:
                    a7:01:c2:87:05:1a:a6:45:b5:a1:61:e9:04:3a:fd:
                    a3:75:7a:60:28:a9:69:2c:31:ca:82:9f:f2:96:65:
                    09:8c:96:cf:9a:ac:94:3f:45:9b:b7:1e:37:77:0f:
                    19:e8:36:03:41:b7:db:03:5e:bf:0c:57:87:a9:bc:
                    ec:6a:65:6b:68:28:4c:07:98:b8:ce:3e:be:73:fd:
                    53:fe:8f:70:ea:c0:f9:ce:28:51:0f:5a:4a:ea:e2:
                    77:da:8e:61:a2:11:d8:b1:53:6c:f4:b5:5d:cb:9c:
                    6e:a7:87:98:e3:05:ba:f7:26:9e:6c:e1:d0:e7:55:
                    7c:4d:27:c9:57:ca:27:74:f2:d4:1f:2c:27:24:96:
                    15:e7:ca:4c:5b:8f:46:75:d7:b1:2e:35:91:f5:d1:
                    1f:29:73:7f:d7:68:6d:90:7a:f7:18:12:97:c8:9a:
                    53:4c:ac:84:c1:a2:6c:33:e6:b2:9a:66:78:e4:f0:
                    bc:e7:b2:62:11:d8:0d:16:c3:7f:db:36:6c:ac:e7:
                    66:9a:a0:19:36:47:aa:41:fc:91:52:70:e3:e9:3c:
                    67:a2:dc:4e:5a:51:37:3d:03:08:20:4e:13:ea:69:
                    64:c7:54:0d:1c:c5:66:39:9e:71:45:99:17:ec:ec:
                    e5:97
                Exponent: 65537 (0x10001)
        X509v3 extensions:
            X509v3 Basic Constraints: 
                CA:FALSE
            Netscape Comment: 
                OpenSSL Generated Certificate
            X509v3 Subject Key Identifier: 
                35:FD:DD:31:EF:3A:02:4D:17:2F:F8:1E:8C:E2:CD:45:BF:8B:0E:B9
            X509v3 Authority Key Identifier: 
                keyid:6D:A6:9A:C5:AE:54:F4:C0:22:C6:90:9F:61:A6:30:89:8A:C2:20:98

    Signature Algorithm: sha256WithRSAEncryption
         a2:d3:15:48:d9:d6:42:20:6c:56:e8:6e:9c:94:4e:02:2a:dd:
         9a:97:6d:3f:50:b3:2e:29:76:1e:35:82:a3:4e:60:8c:bf:ba:
         7a:f2:f7:fa:6e:c9:5c:d5:7b:f4:d7:80:4d:12:9c:b3:49:6b:
         7d:c2:c3:7b:d3:5a:12:ce:cf:81:99:c0:34:4d:b9:e0:69:5e:
         98:b7:fc:ef:00:d2:7d:73:4f:e3:0f:46:b5:d5:a6:a0:ae:30:
         64:b1:04:dc:f4:4c:1e:81:95:9d:a2:a5:8c:7f:b9:ae:65:31:
         ae:6e:23:ba:b1:05:2d:c0:7d:94:2b:f4:8d:20:61:1f:1b:a6:
         b2:2a:e0:3b:05:8c:fb:f5:aa:3e:f1:19:aa:36:e9:35:10:09:
         a0:4b:7e:e2:a4:09:a7:59:63:a2:4a:1d:8b:bc:53:b1:4a:e5:
         19:9b:95:93:57:15:fa:42:00:50:ba:41:1c:87:74:d2:eb:8c:
         16:45:f3:d3:32:16:8e:e2:b8:85:3b:38:0b:52:cb:7f:5d:8d:
         cb:22:8a:84:1b:4d:a8:d4:33:a7:66:ec:c7:22:e0:a3:7f:e0:
         13:fb:21:22:7f:d0:14:e3:80:84:a9:9c:1e:0b:0b:7e:1c:8a:
         46:de:78:cf:04:69:e9:68:34:22:bc:2d:df:95:d1:cb:a4:6b:
         9c:b6:f1:38:42:2c:fc:54:4a:58:ba:4f:d7:3d:45:d5:b3:a3:
         c1:cd:0d:34:4b:e1:1b:6c:a5:29:49:e9:47:cf:fb:14:2a:ff:
         b0:12:7b:8b:f3:cf:d5:90:5e:82:f3:ae:72:35:a6:09:fd:98:
         70:83:d9:51:87:15:19:e7:b8:68:6d:6a:3a:93:4a:e7:4d:6c:
         1c:ee:63:0b:ae:39:ab:c2:43:10:7d:31:18:31:eb:49:00:58:
         a7:e9:a1:f7:23:da:05:48:5d:28:87:12:bb:fa:de:83:4e:22:
         c4:2c:d1:5b:2e:a5:88:d0:21:31:d0:b0:5f:d1:ad:7e:f5:4e:
         58:54:41:58:ef:11:d9:43:24:81:79:08:3b:bd:d7:8e:73:d5:
         e6:67:ff:ed:73:6d:d8:80:3f:f2:66:73:f3:1b:5e:76:27:db:
         70:cd:61:f4:3e:5e:e8:fe:cc:a6:4a:d5:12:77:48:a3:cb:93:
         23:ec:fb:78:74:1b:b1:15:41:8f:99:a5:dd:f6:84:78:59:ab:
         f9:74:32:45:46:48:04:e2:fc:d2:74:4e:05:a9:fb:24:87:65:
         d5:aa:0e:c7:d4:07:4c:09:2f:d1:19:de:f2:bb:0c:51:4f:7b:
         d2:39:0d:c2:d5:b4:b2:8a:ab:a3:78:57:de:7a:87:a4:51:7c:
         ca:a5:dd:6b:4f:e4:b8:dd
-----BEGIN CERTIFICATE-----
MIIEejCCAmKgAwIBAgICEAMwDQYJKoZIhvcNAQELBQAwQzEYMBYGA1UEAwwPd3d3
LmdvbW9tbXkuY29tMRowGAYDVQQKDBFHb01vbW15LmNvbSwgSW5jLjELMAkGA1UE
BhMCVVMwHhcNMjQxMTA1MDAyMDI2WhcNMzQxMTAzMDAyMDI2WjBAMQswCQYDVQQG
EwJVUzEWMBQGA1UECgwNRmFrZUJhbmsgSW5jLjEZMBcGA1UEAwwQd3d3LmZha2Vi
YW5rLmNvbTCCASIwDQYJKoZIhvcNAQEBBQADggEPADCCAQoCggEBAJX/cvmeRxEb
9wpXW/kCpwHChwUapkW1oWHpBDr9o3V6YCipaSwxyoKf8pZlCYyWz5qslD9Fm7ce
N3cPGeg2A0G32wNevwxXh6m87Gpla2goTAeYuM4+vnP9U/6PcOrA+c4oUQ9aSuri
d9qOYaIR2LFTbPS1XcucbqeHmOMFuvcmnmzh0OdVfE0nyVfKJ3Ty1B8sJySWFefK
TFuPRnXXsS41kfXRHylzf9dobZB69xgSl8iaU0yshMGibDPmsppmeOTwvOeyYhHY
DRbDf9s2bKznZpqgGTZHqkH8kVJw4+k8Z6LcTlpRNz0DCCBOE+ppZMdUDRzFZjme
cUWZF+zs5ZcCAwEAAaN7MHkwCQYDVR0TBAIwADAsBglghkgBhvhCAQ0EHxYdT3Bl
blNTTCBHZW5lcmF0ZWQgQ2VydGlmaWNhdGUwHQYDVR0OBBYEFDX93THvOgJNFy/4
HozizUW/iw65MB8GA1UdIwQYMBaAFG2mmsWuVPTAIsaQn2GmMImKwiCYMA0GCSqG
SIb3DQEBCwUAA4ICAQCi0xVI2dZCIGxW6G6clE4CKt2al20/ULMuKXYeNYKjTmCM
v7p68vf6bslc1Xv014BNEpyzSWt9wsN701oSzs+BmcA0TbngaV6Yt/zvANJ9c0/j
D0a11aagrjBksQTc9EwegZWdoqWMf7muZTGubiO6sQUtwH2UK/SNIGEfG6ayKuA7
BYz79ao+8RmqNuk1EAmgS37ipAmnWWOiSh2LvFOxSuUZm5WTVxX6QgBQukEch3TS
64wWRfPTMhaO4riFOzgLUst/XY3LIoqEG02o1DOnZuzHIuCjf+AT+yEif9AU44CE
qZweCwt+HIpG3njPBGnpaDQivC3fldHLpGuctvE4Qiz8VEpYuk/XPUXVs6PBzQ00
S+EbbKUpSelHz/sUKv+wEnuL88/VkF6C865yNaYJ/Zhwg9lRhxUZ57hobWo6k0rn
TWwc7mMLrjmrwkMQfTEYMetJAFin6aH3I9oFSF0ohxK7+t6DTiLELNFbLqWI0CEx
0LBf0a1+9U5YVEFY7xHZQySBeQg7vdeOc9XmZ//tc23YgD/yZnPzG152J9twzWH0
Pl7o/symStUSd0ijy5Mj7Pt4dBuxFUGPmaXd9oR4Wav5dDJFRkgE4vzSdE4Fqfsk
h2XVqg7H1AdMCS/RGd7yuwxRT3vSOQ3C1bSyiqujeFfeeoekUXzKpd1rT+S43Q==
-----END CERTIFICATE-----
